target datalayout = "e-m:e-p270:32:32-p271:32:32-p272:64:64-i64:64-i128:128-f80:128-n8:16:32:64-S128"
target triple = "x86_64-pc-linux-gnu"

; Function Attrs: mustprogress uwtable
define void @_ZN32pxrInternal_v0_24__pxrReserved__22Trace_EventTreeBuilder7OnEventERKNS_13TraceThreadIdERKNS_7TfTokenERKNS_10TraceEventE(ptr noundef nonnull align 8 dereferenceable(296) %0, ptr noundef nonnull align 8 dereferenceable(32) %1, ptr noundef nonnull align 8 dereferenceable(8) %2, ptr noundef nonnull align 8 dereferenceable(32) %3) unnamed_addr #0 align 2 {
  %5 = alloca ptr, align 8
  %6 = alloca ptr, align 8
  %7 = alloca ptr, align 8
  %8 = alloca ptr, align 8
  store ptr %0, ptr %5, align 8
  store ptr %1, ptr %6, align 8
  store ptr %2, ptr %7, align 8
  store ptr %3, ptr %8, align 8
  %9 = load ptr, ptr %5, align 8
  %10 = load ptr, ptr %8, align 8
  %11 = call noundef zeroext i8 @_ZNK32pxrInternal_v0_24__pxrReserved__10TraceEvent7GetTypeEv(ptr noundef nonnull align 8 dereferenceable(32) %10)
  switch i8 %11, label %34 [
    i8 1, label %12
    i8 2, label %16
    i8 5, label %20
    i8 6, label %20
    i8 3, label %21
    i8 4, label %25
    i8 7, label %29
    i8 0, label %33
  ]

12:                                               ; preds = %4
  %13 = load ptr, ptr %6, align 8
  %14 = load ptr, ptr %7, align 8
  %15 = load ptr, ptr %8, align 8
  call void @_ZN32pxrInternal_v0_24__pxrReserved__22Trace_EventTreeBuilder8_OnBeginERKNS_13TraceThreadIdERKNS_7TfTokenERKNS_10TraceEventE(ptr noundef nonnull align 8 dereferenceable(296) %9, ptr noundef nonnull align 8 dereferenceable(32) %13, ptr noundef nonnull align 8 dereferenceable(8) %14, ptr noundef nonnull align 8 dereferenceable(32) %15)
  br label %34

16:                                               ; preds = %4
  %17 = load ptr, ptr %6, align 8
  %18 = load ptr, ptr %7, align 8
  %19 = load ptr, ptr %8, align 8
  call void @_ZN32pxrInternal_v0_24__pxrReserved__22Trace_EventTreeBuilder6_OnEndERKNS_13TraceThreadIdERKNS_7TfTokenERKNS_10TraceEventE(ptr noundef nonnull align 8 dereferenceable(296) %9, ptr noundef nonnull align 8 dereferenceable(32) %17, ptr noundef nonnull align 8 dereferenceable(8) %18, ptr noundef nonnull align 8 dereferenceable(32) %19)
  br label %34

20:                                               ; preds = %4, %4
  br label %34

21:                                               ; preds = %4
  %22 = load ptr, ptr %6, align 8
  %23 = load ptr, ptr %7, align 8
  %24 = load ptr, ptr %8, align 8
  call void @_ZN32pxrInternal_v0_24__pxrReserved__22Trace_EventTreeBuilder11_OnTimespanERKNS_13TraceThreadIdERKNS_7TfTokenERKNS_10TraceEventE(ptr noundef nonnull align 8 dereferenceable(296) %9, ptr noundef nonnull align 8 dereferenceable(32) %22, ptr noundef nonnull align 8 dereferenceable(8) %23, ptr noundef nonnull align 8 dereferenceable(32) %24)
  br label %34

25:                                               ; preds = %4
  %26 = load ptr, ptr %6, align 8
  %27 = load ptr, ptr %7, align 8
  %28 = load ptr, ptr %8, align 8
  call void @_ZN32pxrInternal_v0_24__pxrReserved__22Trace_EventTreeBuilder9_OnMarkerERKNS_13TraceThreadIdERKNS_7TfTokenERKNS_10TraceEventE(ptr noundef nonnull align 8 dereferenceable(296) %9, ptr noundef nonnull align 8 dereferenceable(32) %26, ptr noundef nonnull align 8 dereferenceable(8) %27, ptr noundef nonnull align 8 dereferenceable(32) %28)
  br label %34

29:                                               ; preds = %4
  %30 = load ptr, ptr %6, align 8
  %31 = load ptr, ptr %7, align 8
  %32 = load ptr, ptr %8, align 8
  call void @_ZN32pxrInternal_v0_24__pxrReserved__22Trace_EventTreeBuilder7_OnDataERKNS_13TraceThreadIdERKNS_7TfTokenERKNS_10TraceEventE(ptr noundef nonnull align 8 dereferenceable(296) %9, ptr noundef nonnull align 8 dereferenceable(32) %30, ptr noundef nonnull align 8 dereferenceable(8) %31, ptr noundef nonnull align 8 dereferenceable(32) %32)
  br label %34

33:                                               ; preds = %4
  br label %34

34:                                               ; preds = %33, %29, %25, %21, %20, %16, %12, %4
  ret void
}