; Function Attrs: mustprogress uwtable
define void @_ZN32pxrInternal_v0_24__pxrReserved__22Trace_EventTreeBuilder7OnEventERKNS_13TraceThreadIdERKNS_7TfTokenERKNS_10TraceEventE(ptr noundef nonnull align 8 dereferenceable(296) %0, ptr noundef nonnull align 8 dereferenceable(32) %1, ptr noundef nonnull align 8 dereferenceable(8) %2, ptr noundef nonnull align 8 dereferenceable(32) %3) unnamed_addr #0 align 2 {
  %5 = tail call noundef zeroext i8 @_ZNK32pxrInternal_v0_24__pxrReserved__10TraceEvent7GetTypeEv(ptr noundef nonnull align 8 dereferenceable(32) %3)
  switch i8 %5, label %11 [
    i8 1, label %6
    i8 2, label %7
    i8 7, label %10
    i8 4, label %9
    i8 3, label %8
  ]

6:                                                ; preds = %4
  tail call void @_ZN32pxrInternal_v0_24__pxrReserved__22Trace_EventTreeBuilder8_OnBeginERKNS_13TraceThreadIdERKNS_7TfTokenERKNS_10TraceEventE(ptr noundef nonnull align 8 dereferenceable(296) %0, ptr noundef nonnull align 8 dereferenceable(32) %1, ptr noundef nonnull align 8 dereferenceable(8) %2, ptr noundef nonnull align 8 dereferenceable(32) %3)
  br label %11

7:                                                ; preds = %4
  tail call void @_ZN32pxrInternal_v0_24__pxrReserved__22Trace_EventTreeBuilder6_OnEndERKNS_13TraceThreadIdERKNS_7TfTokenERKNS_10TraceEventE(ptr noundef nonnull align 8 dereferenceable(296) %0, ptr noundef nonnull align 8 dereferenceable(32) %1, ptr noundef nonnull align 8 dereferenceable(8) %2, ptr noundef nonnull align 8 dereferenceable(32) %3)
  br label %11

8:                                                ; preds = %4
  tail call void @_ZN32pxrInternal_v0_24__pxrReserved__22Trace_EventTreeBuilder11_OnTimespanERKNS_13TraceThreadIdERKNS_7TfTokenERKNS_10TraceEventE(ptr noundef nonnull align 8 dereferenceable(296) %0, ptr noundef nonnull align 8 dereferenceable(32) %1, ptr noundef nonnull align 8 dereferenceable(8) %2, ptr noundef nonnull align 8 dereferenceable(32) %3)
  br label %11

9:                                                ; preds = %4
  tail call void @_ZN32pxrInternal_v0_24__pxrReserved__22Trace_EventTreeBuilder9_OnMarkerERKNS_13TraceThreadIdERKNS_7TfTokenERKNS_10TraceEventE(ptr noundef nonnull align 8 dereferenceable(296) %0, ptr noundef nonnull align 8 dereferenceable(32) %1, ptr noundef nonnull align 8 dereferenceable(8) %2, ptr noundef nonnull align 8 dereferenceable(32) %3)
  br label %11

10:                                               ; preds = %4
  tail call void @_ZN32pxrInternal_v0_24__pxrReserved__22Trace_EventTreeBuilder7_OnDataERKNS_13TraceThreadIdERKNS_7TfTokenERKNS_10TraceEventE(ptr noundef nonnull align 8 dereferenceable(296) %0, ptr noundef nonnull align 8 dereferenceable(32) %1, ptr noundef nonnull align 8 dereferenceable(8) %2, ptr noundef nonnull align 8 dereferenceable(32) %3)
  br label %11

11:                                               ; preds = %10, %9, %8, %7, %6, %4
  ret void
}